target datalayout = "e-m:e-p270:32:32-p271:32:32-p272:64:64-i64:64-i128:128-f80:128-n8:16:32:64-S128"
target triple = "x86_64-pc-linux-gnu"

%struct.mbedtls_md_context_t = type { ptr, ptr, ptr }

; Function Attrs: inlinehint nounwind uwtable
define internal i64 @mbedtls_ct_bool(i64 noundef %0) #4 {
  %2 = alloca i64, align 8
  %3 = alloca i64, align 8
  store i64 %0, ptr %2, align 8, !tbaa !22
  call void @llvm.lifetime.start.p0(i64 8, ptr %3) #11
  %4 = load i64, ptr %2, align 8, !tbaa !22
  %5 = call i64 asm sideeffect "mov  $1, $0                                \0A\09neg  $0                                      \0A\09or   $1, $0                                \0A\09sar  $$63, $0                                 \0A\09", "=&{ax},{di},~{dirflag},~{fpsr},~{flags}"(i64 %4) #11, !srcloc !184
  store i64 %5, ptr %3, align 8, !tbaa !22
  %6 = load i64, ptr %3, align 8, !tbaa !22
  call void @llvm.lifetime.end.p0(i64 8, ptr %3) #11
  ret i64 %6
}

; Function Attrs: inlinehint nounwind uwtable
define internal i64 @mbedtls_ct_compiler_opaque(i64 noundef %0) #4 {
  %2 = alloca i64, align 8
  store i64 %0, ptr %2, align 8, !tbaa !22
  %3 = load i64, ptr %2, align 8, !tbaa !22
  %4 = call i64 asm sideeffect "", "=r,0,~{dirflag},~{fpsr},~{flags}"(i64 %3) #11, !srcloc !68
  store i64 %4, ptr %2, align 8, !tbaa !22
  %5 = load i64, ptr %2, align 8, !tbaa !22
  ret i64 %5
}

; Function Attrs: inlinehint nounwind uwtable
define internal i64 @mbedtls_ct_uint_ne(i64 noundef %0, i64 noundef %1) #4 {
  %3 = alloca i64, align 8
  %4 = alloca i64, align 8
  %5 = alloca i64, align 8
  store i64 %0, ptr %3, align 8, !tbaa !22
  store i64 %1, ptr %4, align 8, !tbaa !22
  call void @llvm.lifetime.start.p0(i64 8, ptr %5) #11
  %6 = load i64, ptr %3, align 8, !tbaa !22
  %7 = call i64 @mbedtls_ct_compiler_opaque(i64 noundef %6)
  %8 = load i64, ptr %4, align 8, !tbaa !22
  %9 = call i64 @mbedtls_ct_compiler_opaque(i64 noundef %8)
  %10 = xor i64 %7, %9
  store i64 %10, ptr %5, align 8, !tbaa !22
  %11 = load i64, ptr %5, align 8, !tbaa !22
  %12 = call i64 @mbedtls_ct_bool(i64 noundef %11)
  call void @llvm.lifetime.end.p0(i64 8, ptr %5) #11
  ret i64 %12
}

; Function Attrs: inlinehint nounwind uwtable
define internal i64 @mbedtls_ct_uint_eq(i64 noundef %0, i64 noundef %1) #4 {
  %3 = alloca i64, align 8
  %4 = alloca i64, align 8
  store i64 %0, ptr %3, align 8, !tbaa !22
  store i64 %1, ptr %4, align 8, !tbaa !22
  %5 = load i64, ptr %3, align 8, !tbaa !22
  %6 = load i64, ptr %4, align 8, !tbaa !22
  %7 = call i64 @mbedtls_ct_uint_ne(i64 noundef %5, i64 noundef %6)
  %8 = xor i64 %7, -1
  ret i64 %8
}

; Function Attrs: nounwind uwtable
define internal i32 @mbedtls_ct_hmac(ptr noundef %0, ptr noundef %1, i64 noundef %2, ptr noundef %3, i64 noundef %4, i64 noundef %5, i64 noundef %6, ptr noundef %7) #0 {
  %9 = alloca ptr, align 8
  %10 = alloca ptr, align 8
  %11 = alloca i64, align 8
  %12 = alloca ptr, align 8
  %13 = alloca i64, align 8
  %14 = alloca i64, align 8
  %15 = alloca i64, align 8
  %16 = alloca ptr, align 8
  %17 = alloca i32, align 4
  %18 = alloca i64, align 8
  %19 = alloca ptr, align 8
  %20 = alloca ptr, align 8
  %21 = alloca i64, align 8
  %22 = alloca [64 x i8], align 16
  %23 = alloca %struct.mbedtls_md_context_t, align 8
  %24 = alloca i64, align 8
  %25 = alloca i32, align 4
  store ptr %0, ptr %9, align 8, !tbaa !69
  store ptr %1, ptr %10, align 8, !tbaa !21
  store i64 %2, ptr %11, align 8, !tbaa !22
  store ptr %3, ptr %12, align 8, !tbaa !21
  store i64 %4, ptr %13, align 8, !tbaa !22
  store i64 %5, ptr %14, align 8, !tbaa !22
  store i64 %6, ptr %15, align 8, !tbaa !22
  store ptr %7, ptr %16, align 8, !tbaa !21
  call void @llvm.lifetime.start.p0(i64 4, ptr %17) #11
  %26 = load ptr, ptr %9, align 8, !tbaa !69
  %27 = getelementptr inbounds nuw %struct.mbedtls_md_context_t, ptr %26, i32 0, i32 0
  %28 = load ptr, ptr %27, align 8, !tbaa !71
  %29 = call i32 @mbedtls_md_get_type(ptr noundef %28)
  store i32 %29, ptr %17, align 4, !tbaa !8
  call void @llvm.lifetime.start.p0(i64 8, ptr %18) #11
  %30 = load i32, ptr %17, align 4, !tbaa !8
  %31 = icmp eq i32 %30, 10
  %32 = select i1 %31, i32 128, i32 64
  %33 = sext i32 %32 to i64
  store i64 %33, ptr %18, align 8, !tbaa !22
  call void @llvm.lifetime.start.p0(i64 8, ptr %19) #11
  %34 = load ptr, ptr %9, align 8, !tbaa !69
  %35 = getelementptr inbounds nuw %struct.mbedtls_md_context_t, ptr %34, i32 0, i32 2
  %36 = load ptr, ptr %35, align 8, !tbaa !72
  store ptr %36, ptr %19, align 8, !tbaa !21
  call void @llvm.lifetime.start.p0(i64 8, ptr %20) #11
  %37 = load ptr, ptr %19, align 8, !tbaa !21
  %38 = load i64, ptr %18, align 8, !tbaa !22
  %39 = getelementptr inbounds nuw i8, ptr %37, i64 %38
  store ptr %39, ptr %20, align 8, !tbaa !21
  call void @llvm.lifetime.start.p0(i64 8, ptr %21) #11
  %40 = load ptr, ptr %9, align 8, !tbaa !69
  %41 = getelementptr inbounds nuw %struct.mbedtls_md_context_t, ptr %40, i32 0, i32 0
  %42 = load ptr, ptr %41, align 8, !tbaa !71
  %43 = call zeroext i8 @mbedtls_md_get_size(ptr noundef %42)
  %44 = zext i8 %43 to i64
  store i64 %44, ptr %21, align 8, !tbaa !22
  call void @llvm.lifetime.start.p0(i64 64, ptr %22) #11
  call void @llvm.lifetime.start.p0(i64 24, ptr %23) #11
  call void @llvm.lifetime.start.p0(i64 8, ptr %24) #11
  call void @llvm.lifetime.start.p0(i64 4, ptr %25) #11
  store i32 -110, ptr %25, align 4, !tbaa !8
  call void @mbedtls_md_init(ptr noundef %23)
  br label %45

45:                                               ; preds = %8
  %46 = load ptr, ptr %9, align 8, !tbaa !69
  %47 = getelementptr inbounds nuw %struct.mbedtls_md_context_t, ptr %46, i32 0, i32 0
  %48 = load ptr, ptr %47, align 8, !tbaa !71
  %49 = call i32 @mbedtls_md_setup(ptr noundef %23, ptr noundef %48, i32 noundef 0)
  store i32 %49, ptr %25, align 4, !tbaa !8
  %50 = load i32, ptr %25, align 4, !tbaa !8
  %51 = icmp ne i32 %50, 0
  br i1 %51, label %52, label %53

52:                                               ; preds = %45
  br label %191

53:                                               ; preds = %45
  br label %54

54:                                               ; preds = %53
  br label %55

55:                                               ; preds = %54
  br label %56

56:                                               ; preds = %55
  %57 = load ptr, ptr %9, align 8, !tbaa !69
  %58 = load ptr, ptr %10, align 8, !tbaa !21
  %59 = load i64, ptr %11, align 8, !tbaa !22
  %60 = call i32 @mbedtls_md_update(ptr noundef %57, ptr noundef %58, i64 noundef %59)
  store i32 %60, ptr %25, align 4, !tbaa !8
  %61 = load i32, ptr %25, align 4, !tbaa !8
  %62 = icmp ne i32 %61, 0
  br i1 %62, label %63, label %64

63:                                               ; preds = %56
  br label %191

64:                                               ; preds = %56
  br label %65

65:                                               ; preds = %64
  br label %66

66:                                               ; preds = %65
  br label %67

67:                                               ; preds = %66
  %68 = load ptr, ptr %9, align 8, !tbaa !69
  %69 = load ptr, ptr %12, align 8, !tbaa !21
  %70 = load i64, ptr %14, align 8, !tbaa !22
  %71 = call i32 @mbedtls_md_update(ptr noundef %68, ptr noundef %69, i64 noundef %70)
  store i32 %71, ptr %25, align 4, !tbaa !8
  %72 = load i32, ptr %25, align 4, !tbaa !8
  %73 = icmp ne i32 %72, 0
  br i1 %73, label %74, label %75

74:                                               ; preds = %67
  br label %191

75:                                               ; preds = %67
  br label %76

76:                                               ; preds = %75
  br label %77

77:                                               ; preds = %76
  %78 = load ptr, ptr %16, align 8, !tbaa !21
  %79 = load i64, ptr %21, align 8, !tbaa !22
  call void @llvm.memset.p0.i64(ptr align 1 %78, i8 33, i64 %79, i1 false)
  %80 = load i64, ptr %14, align 8, !tbaa !22
  store i64 %80, ptr %24, align 8, !tbaa !22
  br label %81

81:                                               ; preds = %127, %77
  %82 = load i64, ptr %24, align 8, !tbaa !22
  %83 = load i64, ptr %15, align 8, !tbaa !22
  %84 = icmp ule i64 %82, %83
  br i1 %84, label %85, label %130

85:                                               ; preds = %81
  br label %86

86:                                               ; preds = %85
  %87 = load ptr, ptr %9, align 8, !tbaa !69
  %88 = call i32 @mbedtls_md_clone(ptr noundef %23, ptr noundef %87)
  store i32 %88, ptr %25, align 4, !tbaa !8
  %89 = load i32, ptr %25, align 4, !tbaa !8
  %90 = icmp ne i32 %89, 0
  br i1 %90, label %91, label %92

91:                                               ; preds = %86
  br label %191

92:                                               ; preds = %86
  br label %93

93:                                               ; preds = %92
  br label %94

94:                                               ; preds = %93
  br label %95

95:                                               ; preds = %94
  %96 = getelementptr inbounds [64 x i8], ptr %22, i64 0, i64 0
  %97 = call i32 @mbedtls_md_finish(ptr noundef %23, ptr noundef %96)
  store i32 %97, ptr %25, align 4, !tbaa !8
  %98 = load i32, ptr %25, align 4, !tbaa !8
  %99 = icmp ne i32 %98, 0
  br i1 %99, label %100, label %101

100:                                              ; preds = %95
  br label %191

101:                                              ; preds = %95
  br label %102

102:                                              ; preds = %101
  br label %103

103:                                              ; preds = %102
  %104 = load i64, ptr %24, align 8, !tbaa !22
  %105 = load i64, ptr %13, align 8, !tbaa !22
  %106 = call i64 @mbedtls_ct_uint_eq(i64 noundef %104, i64 noundef %105)
  %107 = load ptr, ptr %16, align 8, !tbaa !21
  %108 = getelementptr inbounds [64 x i8], ptr %22, i64 0, i64 0
  %109 = load i64, ptr %21, align 8, !tbaa !22
  call void @mbedtls_ct_memcpy_if(i64 noundef %106, ptr noundef %107, ptr noundef %108, ptr noundef null, i64 noundef %109)
  %110 = load i64, ptr %24, align 8, !tbaa !22
  %111 = load i64, ptr %15, align 8, !tbaa !22
  %112 = icmp ult i64 %110, %111
  br i1 %112, label %113, label %126

113:                                              ; preds = %103
  br label %114

114:                                              ; preds = %113
  %115 = load ptr, ptr %9, align 8, !tbaa !69
  %116 = load ptr, ptr %12, align 8, !tbaa !21
  %117 = load i64, ptr %24, align 8, !tbaa !22
  %118 = getelementptr inbounds nuw i8, ptr %116, i64 %117
  %119 = call i32 @mbedtls_md_update(ptr noundef %115, ptr noundef %118, i64 noundef 1)
  store i32 %119, ptr %25, align 4, !tbaa !8
  %120 = load i32, ptr %25, align 4, !tbaa !8
  %121 = icmp ne i32 %120, 0
  br i1 %121, label %122, label %123

122:                                              ; preds = %114
  br label %191

123:                                              ; preds = %114
  br label %124

124:                                              ; preds = %123
  br label %125

125:                                              ; preds = %124
  br label %126

126:                                              ; preds = %125, %103
  br label %127

127:                                              ; preds = %126
  %128 = load i64, ptr %24, align 8, !tbaa !22
  %129 = add i64 %128, 1
  store i64 %129, ptr %24, align 8, !tbaa !22
  br label %81, !llvm.loop !73

130:                                              ; preds = %81
  br label %131

131:                                              ; preds = %130
  %132 = load ptr, ptr %9, align 8, !tbaa !69
  %133 = getelementptr inbounds [64 x i8], ptr %22, i64 0, i64 0
  %134 = call i32 @mbedtls_md_finish(ptr noundef %132, ptr noundef %133)
  store i32 %134, ptr %25, align 4, !tbaa !8
  %135 = load i32, ptr %25, align 4, !tbaa !8
  %136 = icmp ne i32 %135, 0
  br i1 %136, label %137, label %138

137:                                              ; preds = %131
  br label %191

138:                                              ; preds = %131
  br label %139

139:                                              ; preds = %138
  br label %140

140:                                              ; preds = %139
  br label %141

141:                                              ; preds = %140
  %142 = load ptr, ptr %9, align 8, !tbaa !69
  %143 = call i32 @mbedtls_md_starts(ptr noundef %142)
  store i32 %143, ptr %25, align 4, !tbaa !8
  %144 = load i32, ptr %25, align 4, !tbaa !8
  %145 = icmp ne i32 %144, 0
  br i1 %145, label %146, label %147

146:                                              ; preds = %141
  br label %191

147:                                              ; preds = %141
  br label %148

148:                                              ; preds = %147
  br label %149

149:                                              ; preds = %148
  br label %150

150:                                              ; preds = %149
  %151 = load ptr, ptr %9, align 8, !tbaa !69
  %152 = load ptr, ptr %20, align 8, !tbaa !21
  %153 = load i64, ptr %18, align 8, !tbaa !22
  %154 = call i32 @mbedtls_md_update(ptr noundef %151, ptr noundef %152, i64 noundef %153)
  store i32 %154, ptr %25, align 4, !tbaa !8
  %155 = load i32, ptr %25, align 4, !tbaa !8
  %156 = icmp ne i32 %155, 0
  br i1 %156, label %157, label %158

157:                                              ; preds = %150
  br label %191

158:                                              ; preds = %150
  br label %159

159:                                              ; preds = %158
  br label %160

160:                                              ; preds = %159
  br label %161

161:                                              ; preds = %160
  %162 = load ptr, ptr %9, align 8, !tbaa !69
  %163 = load ptr, ptr %16, align 8, !tbaa !21
  %164 = load i64, ptr %21, align 8, !tbaa !22
  %165 = call i32 @mbedtls_md_update(ptr noundef %162, ptr noundef %163, i64 noundef %164)
  store i32 %165, ptr %25, align 4, !tbaa !8
  %166 = load i32, ptr %25, align 4, !tbaa !8
  %167 = icmp ne i32 %166, 0
  br i1 %167, label %168, label %169

168:                                              ; preds = %161
  br label %191

169:                                              ; preds = %161
  br label %170

170:                                              ; preds = %169
  br label %171

171:                                              ; preds = %170
  br label %172

172:                                              ; preds = %171
  %173 = load ptr, ptr %9, align 8, !tbaa !69
  %174 = load ptr, ptr %16, align 8, !tbaa !21
  %175 = call i32 @mbedtls_md_finish(ptr noundef %173, ptr noundef %174)
  store i32 %175, ptr %25, align 4, !tbaa !8
  %176 = load i32, ptr %25, align 4, !tbaa !8
  %177 = icmp ne i32 %176, 0
  br i1 %177, label %178, label %179

178:                                              ; preds = %172
  br label %191

179:                                              ; preds = %172
  br label %180

180:                                              ; preds = %179
  br label %181

181:                                              ; preds = %180
  br label %182

182:                                              ; preds = %181
  %183 = load ptr, ptr %9, align 8, !tbaa !69
  %184 = call i32 @mbedtls_md_hmac_reset(ptr noundef %183)
  store i32 %184, ptr %25, align 4, !tbaa !8
  %185 = load i32, ptr %25, align 4, !tbaa !8
  %186 = icmp ne i32 %185, 0
  br i1 %186, label %187, label %188

187:                                              ; preds = %182
  br label %191

188:                                              ; preds = %182
  br label %189

189:                                              ; preds = %188
  br label %190

190:                                              ; preds = %189
  br label %191

191:                                              ; preds = %190, %187, %178, %168, %157, %146, %137, %122, %100, %91, %74, %63, %52
  call void @mbedtls_md_free(ptr noundef %23)
  %192 = load i32, ptr %25, align 4, !tbaa !8
  call void @llvm.lifetime.end.p0(i64 4, ptr %25) #11
  call void @llvm.lifetime.end.p0(i64 8, ptr %24) #11
  call void @llvm.lifetime.end.p0(i64 24, ptr %23) #11
  call void @llvm.lifetime.end.p0(i64 64, ptr %22) #11
  call void @llvm.lifetime.end.p0(i64 8, ptr %21) #11
  call void @llvm.lifetime.end.p0(i64 8, ptr %20) #11
  call void @llvm.lifetime.end.p0(i64 8, ptr %19) #11
  call void @llvm.lifetime.end.p0(i64 8, ptr %18) #11
  call void @llvm.lifetime.end.p0(i64 4, ptr %17) #11
  ret i32 %192
}