; Function Attrs: nounwind uwtable
define internal fastcc i32 @mbedtls_ct_hmac(ptr noundef %0, ptr noundef nonnull %1, i64 noundef %2, ptr noundef nonnull %3, i64 noundef %4, i64 noundef %5, i64 noundef %6, ptr noundef nonnull %7) unnamed_addr #0 {
  %9 = alloca [64 x i8], align 16
  %10 = alloca %struct.mbedtls_md_context_t, align 8
  %11 = load ptr, ptr %0, align 8, !tbaa !65
  %12 = tail call i32 @mbedtls_md_get_type(ptr noundef %11) #19
  %13 = icmp eq i32 %12, 10
  %14 = select i1 %13, i64 128, i64 64
  %15 = getelementptr inbounds nuw i8, ptr %0, i64 16
  %16 = load ptr, ptr %15, align 8, !tbaa !66
  %17 = getelementptr inbounds nuw i8, ptr %16, i64 %14
  %18 = load ptr, ptr %0, align 8, !tbaa !65
  %19 = tail call zeroext i8 @mbedtls_md_get_size(ptr noundef %18) #19
  %20 = zext i8 %19 to i64
  call void @llvm.lifetime.start.p0(i64 64, ptr nonnull %9) #19
  call void @llvm.lifetime.start.p0(i64 24, ptr nonnull %10) #19
  call void @mbedtls_md_init(ptr noundef nonnull %10) #19
  %21 = load ptr, ptr %0, align 8, !tbaa !65
  %22 = call i32 @mbedtls_md_setup(ptr noundef nonnull %10, ptr noundef %21, i32 noundef 0) #19
  %.not = icmp eq i32 %22, 0
  br i1 %.not, label %23, label %.loopexit

23:                                               ; preds = %8
  %24 = call i32 @mbedtls_md_update(ptr noundef nonnull %0, ptr noundef nonnull %1, i64 noundef %2) #19
  %.not64 = icmp eq i32 %24, 0
  br i1 %.not64, label %25, label %.loopexit

25:                                               ; preds = %23
  %26 = call i32 @mbedtls_md_update(ptr noundef nonnull %0, ptr noundef nonnull %3, i64 noundef %5) #19
  %.not65 = icmp eq i32 %26, 0
  br i1 %.not65, label %27, label %.loopexit

27:                                               ; preds = %25
  call void @llvm.memset.p0.i64(ptr nonnull align 1 %7, i8 33, i64 %20, i1 false)
  %.not6675 = icmp ugt i64 %5, %6
  br i1 %.not6675, label %._crit_edge, label %.lr.ph

.lr.ph:                                           ; preds = %27, %41
  %.05176 = phi i64 [ %42, %41 ], [ %5, %27 ]
  %28 = call i32 @mbedtls_md_clone(ptr noundef nonnull %10, ptr noundef nonnull %0) #19
  %.not72 = icmp eq i32 %28, 0
  br i1 %.not72, label %29, label %.loopexit

29:                                               ; preds = %.lr.ph
  %30 = call i32 @mbedtls_md_finish(ptr noundef nonnull %10, ptr noundef nonnull %9) #19
  %.not73 = icmp eq i32 %30, 0
  br i1 %.not73, label %31, label %.loopexit

31:                                               ; preds = %29
  %32 = call i64 asm sideeffect "", "=r,0,~{dirflag},~{fpsr},~{flags}"(i64 %.05176) #19, !srcloc !44
  %33 = call i64 asm sideeffect "", "=r,0,~{dirflag},~{fpsr},~{flags}"(i64 %4) #19, !srcloc !44
  %34 = xor i64 %33, %32
  %35 = call i64 asm sideeffect "mov  $1, $0                                \0A\09neg  $0                                      \0A\09or   $1, $0                                \0A\09sar  $$63, $0                                 \0A\09", "=&{ax},{di},~{dirflag},~{fpsr},~{flags}"(i64 %34) #19, !srcloc !59
  %36 = xor i64 %35, -1
  call void @mbedtls_ct_memcpy_if(i64 noundef %36, ptr noundef nonnull %7, ptr noundef nonnull %9, ptr noundef null, i64 noundef %20) #19
  %37 = icmp ult i64 %.05176, %6
  br i1 %37, label %38, label %41

38:                                               ; preds = %31
  %39 = getelementptr inbounds nuw i8, ptr %3, i64 %.05176
  %40 = call i32 @mbedtls_md_update(ptr noundef nonnull %0, ptr noundef nonnull %39, i64 noundef 1) #19
  %.not74 = icmp eq i32 %40, 0
  br i1 %.not74, label %41, label %.loopexit

41:                                               ; preds = %31, %38
  %42 = add i64 %.05176, 1
  %.not66 = icmp ugt i64 %42, %6
  br i1 %.not66, label %._crit_edge, label %.lr.ph, !llvm.loop !67

._crit_edge:                                      ; preds = %41, %27
  %43 = call i32 @mbedtls_md_finish(ptr noundef nonnull %0, ptr noundef nonnull %9) #19
  %.not67 = icmp eq i32 %43, 0
  br i1 %.not67, label %44, label %.loopexit

44:                                               ; preds = %._crit_edge
  %45 = call i32 @mbedtls_md_starts(ptr noundef nonnull %0) #19
  %.not68 = icmp eq i32 %45, 0
  br i1 %.not68, label %46, label %.loopexit

46:                                               ; preds = %44
  %47 = call i32 @mbedtls_md_update(ptr noundef nonnull %0, ptr noundef nonnull %17, i64 noundef %14) #19
  %.not69 = icmp eq i32 %47, 0
  br i1 %.not69, label %48, label %.loopexit

48:                                               ; preds = %46
  %49 = call i32 @mbedtls_md_update(ptr noundef nonnull %0, ptr noundef nonnull %7, i64 noundef %20) #19
  %.not70 = icmp eq i32 %49, 0
  br i1 %.not70, label %50, label %.loopexit

50:                                               ; preds = %48
  %51 = call i32 @mbedtls_md_finish(ptr noundef nonnull %0, ptr noundef nonnull %7) #19
  %.not71 = icmp eq i32 %51, 0
  br i1 %.not71, label %52, label %.loopexit

52:                                               ; preds = %50
  %53 = call i32 @mbedtls_md_hmac_reset(ptr noundef nonnull %0) #19
  br label %.loopexit

.loopexit:                                        ; preds = %38, %29, %.lr.ph, %52, %50, %48, %46, %44, %._crit_edge, %25, %23, %8
  %.0 = phi i32 [ %22, %8 ], [ %24, %23 ], [ %26, %25 ], [ %43, %._crit_edge ], [ %45, %44 ], [ %47, %46 ], [ %49, %48 ], [ %51, %50 ], [ %53, %52 ], [ %40, %38 ], [ %30, %29 ], [ %28, %.lr.ph ]
  call void @mbedtls_md_free(ptr noundef nonnull %10) #19
  call void @llvm.lifetime.end.p0(i64 24, ptr nonnull %10) #19
  call void @llvm.lifetime.end.p0(i64 64, ptr nonnull %9) #19
  ret i32 %.0
}